(lp0
((I0
I7921
tp1
(I0
I7921
tp2
tp3
a((I7922
I66562
tp4
(I7923
I66563
tp5
tp6
a((I66733
I183605
tp7
(I66564
I183436
tp8
tp9
a((I183607
I247463
tp10
(I183437
I247293
tp11
tp12
a((I247465
I280882
tp13
(I247294
I280711
tp14
tp15
a((I280884
I320780
tp16
(I280712
I320608
tp17
tp18
a((I320782
I356848
tp19
(I320609
I356675
tp20
tp21
a((I356851
I379235
tp22
(I356678
I379062
tp23
tp24
a((I379237
I400766
tp25
(I379063
I400592
tp26
tp27
a((I400768
I547830
tp28
(I400593
I547655
tp29
tp30
a((I547831
I581368
tp31
(I547657
I581194
tp32
tp33
a((I581370
I674822
tp34
(I581195
I674647
tp35
tp36
a((I674824
I722742
tp37
(I674648
I722566
tp38
tp39
a((I722743
I788052
tp40
(I722568
I787877
tp41
tp42
a((I789202
I806564
tp43
(I787878
I805240
tp44
tp45
a((I809582
I931554
tp46
(I817465
I939437
tp47
tp48
a((I931556
I1005634
tp49
(I939438
I1013516
tp50
tp51
a((I1005636
I1049519
tp52
(I1013517
I1057400
tp53
tp54
a((I1049523
I1049529
tp55
(I1057403
I1057409
tp56
tp57
a((I1049543
I1067497
tp58
(I1057423
I1075377
tp59
tp60
a((I1067499
I1067506
tp61
(I1075378
I1075385
tp62
tp63
a((I1067508
I1167569
tp64
(I1075386
I1175447
tp65
tp66
a((I1167571
I1207755
tp67
(I1175448
I1215632
tp68
tp69
a((I1207757
I1216218
tp70
(I1215633
I1224094
tp71
tp72
a((I1216221
I1249846
tp73
(I1224095
I1257720
tp74
tp75
a((I1249847
I1264222
tp76
(I1257722
I1272097
tp77
tp78
a((I1265305
I1286014
tp79
(I1272098
I1292807
tp80
tp81
a((I1286019
I1286026
tp82
(I1292812
I1292819
tp83
tp84
a((I1286029
I1286382
tp85
(I1292822
I1293175
tp86
tp87
a((I1286385
I1286436
tp88
(I1293178
I1293229
tp89
tp90
a((I1286443
I1368058
tp91
(I1293236
I1374851
tp92
tp93
a((I1368060
I1425989
tp94
(I1374852
I1432781
tp95
tp96
a((I1425995
I1622372
tp97
(I1432787
I1629164
tp98
tp99
a((I1622374
I1683559
tp100
(I1629165
I1690350
tp101
tp102
a((I1683561
I1694470
tp103
(I1690351
I1701260
tp104
tp105
a((I1694472
I1698219
tp106
(I1701261
I1705008
tp107
tp108
a((I1698220
I1710535
tp109
(I1705010
I1717325
tp110
tp111
a((I1710536
I1755774
tp112
(I1717327
I1762565
tp113
tp114
a((I1755780
I1757698
tp115
(I1762566
I1764484
tp116
tp117
a((I1757699
I1762009
tp118
(I1764486
I1768796
tp119
tp120
a((I1762011
I1819882
tp121
(I1768797
I1826668
tp122
tp123
a((I1819884
I1848828
tp124
(I1826669
I1855613
tp125
tp126
a((I1848830
I1867039
tp127
(I1855614
I1873823
tp128
tp129
a((I1867041
I1873073
tp130
(I1873824
I1879856
tp131
tp132
a((I1873075
I1918221
tp133
(I1879857
I1925003
tp134
tp135
a((I1918222
I1948577
tp136
(I1925005
I1955360
tp137
tp138
a((I1948578
I1976517
tp139
(I1955362
I1983301
tp140
tp141
a((I1977294
I2198467
tp142
(I1983302
I2204475
tp143
tp144
a((I2198469
I2212354
tp145
(I2204476
I2218361
tp146
tp147
a((I2212356
I2238770
tp148
(I2218362
I2244776
tp149
tp150
a((I2238771
I2460901
tp151
(I2244778
I2466908
tp152
tp153
a((I2460903
I2482912
tp154
(I2466909
I2488918
tp155
tp156
a((I2482913
I2523937
tp157
(I2488921
I2529945
tp158
tp159
a((I2523947
I2598625
tp160
(I2529946
I2604624
tp161
tp162
a((I2598626
I2612633
tp163
(I2604626
I2618633
tp164
tp165
a((I2612636
I2763808
tp166
(I2618634
I2769806
tp167
tp168
a((I2763809
I2765459
tp169
(I2769809
I2771459
tp170
tp171
a((I2765460
I2767663
tp172
(I2771461
I2773664
tp173
tp174
a((I2767665
I2784766
tp175
(I2773665
I2790766
tp176
tp177
a((I2784768
I2822516
tp178
(I2790767
I2828515
tp179
tp180
a((I2822518
I2855158
tp181
(I2828516
I2861156
tp182
tp183
a((I2857631
I2857642
tp184
(I2861919
I2861930
tp185
tp186
a((I2857645
I2858445
tp187
(I2861931
I2862731
tp188
tp189
a((I2858447
I2891981
tp190
(I2862732
I2896266
tp191
tp192
a((I2891985
I2993245
tp193
(I2896267
I2997527
tp194
tp195
a((I2993246
I3010572
tp196
(I2997529
I3014855
tp197
tp198
a((I3010574
I3012278
tp199
(I3014856
I3016560
tp200
tp201
a((I3012280
I3132831
tp202
(I3016561
I3137112
tp203
tp204
a((I3132833
I3176012
tp205
(I3137113
I3180292
tp206
tp207
a((I3177631
I3236576
tp208
(I3180293
I3239238
tp209
tp210
a((I3236578
I3238998
tp211
(I3239239
I3241659
tp212
tp213
a((I3238999
I3328374
tp214
(I3241662
I3331037
tp215
tp216
a((I3328375
I3506471
tp217
(I3331039
I3509135
tp218
tp219
a((I3506473
I3509759
tp220
(I3509136
I3512422
tp221
tp222
a((I3509760
I3707578
tp223
(I3512424
I3710242
tp224
tp225
a((I3707579
I3726133
tp226
(I3710244
I3728798
tp227
tp228
a((I3726134
I3734181
tp229
(I3728800
I3736847
tp230
tp231
a((I3734182
I3740619
tp232
(I3736849
I3743286
tp233
tp234
a((I3740621
I3740654
tp235
(I3743287
I3743320
tp236
tp237
a((I3740655
I3860537
tp238
(I3744552
I3864434
tp239
tp240
a((I3860539
I3860545
tp241
(I3864435
I3864441
tp242
tp243
a((I3860549
I3895068
tp244
(I3864442
I3898961
tp245
tp246
a((I3895069
I3968048
tp247
(I3898963
I3971942
tp248
tp249
a((I3968049
I3978973
tp250
(I3971944
I3982868
tp251
tp252
a((I3978974
I4036959
tp253
(I3982870
I4040855
tp254
tp255
a((I4036960
I4038470
tp256
(I4040857
I4042367
tp257
tp258
a((I4038472
I4266502
tp259
(I4042368
I4270398
tp260
tp261
a((I4266503
I4294402
tp262
(I4270400
I4298299
tp263
tp264
a((I4294403
I4422564
tp265
(I4298302
I4426463
tp266
tp267
a((I4422566
I4445888
tp268
(I4426464
I4449786
tp269
tp270
a((I4445890
I4472154
tp271
(I4449787
I4476051
tp272
tp273
a((I4472155
I4488137
tp274
(I4476053
I4492035
tp275
tp276
a((I4488149
I4617491
tp277
(I4492036
I4621378
tp278
tp279
a((I4617501
I4639674
tp280
(I4621379
I4643552
tp281
tp282
a.